; Function Attrs: mustprogress uwtable
define dso_local void @_ZNK24cmInstallScriptGenerator20AddScriptInstallRuleERSo23cmScriptGeneratorIndentRKNSt7__cxx1112basic_stringIcSt11char_traitsIcESaIcEEE(ptr nocapture noundef nonnull readonly align 8 dereferenceable(249) %0, ptr noundef nonnull align 8 dereferenceable(8) %1, i32 %2, ptr noundef nonnull align 8 dereferenceable(32) %3) local_unnamed_addr #3 align 2 {
  %5 = getelementptr inbounds i8, ptr %0, i64 232
  %6 = load i8, ptr %5, align 8
  %7 = and i8 %6, 1
  %.not = icmp eq i8 %7, 0
  %8 = icmp sgt i32 %2, 0
  br i1 %.not, label %12, label %9

9:                                                ; preds = %4
  br i1 %8, label %.lr.ph.i.i, label %_ZlsRSo23cmScriptGeneratorIndent.exit

.lr.ph.i.i:                                       ; preds = %9, %.lr.ph.i.i
  %.03.i.i = phi i32 [ %11, %.lr.ph.i.i ], [ 0, %9 ]
  %10 = tail call noundef nonnull align 8 dereferenceable(8) ptr @_ZStlsISt11char_traitsIcEERSt13basic_ostreamIcT_ES5_PKc(ptr noundef nonnull align 8 dereferenceable(8) %1, ptr noundef nonnull @.str.5)
  %11 = add nuw nsw i32 %.03.i.i, 1
  %exitcond.not.i = icmp eq i32 %11, %2
  br i1 %exitcond.not.i, label %_ZlsRSo23cmScriptGeneratorIndent.exit, label %.lr.ph.i.i, !llvm.loop !7

12:                                               ; preds = %4
  br i1 %8, label %.lr.ph.i.i8, label %_ZlsRSo23cmScriptGeneratorIndent.exit11

.lr.ph.i.i8:                                      ; preds = %12, %.lr.ph.i.i8
  %.03.i.i9 = phi i32 [ %14, %.lr.ph.i.i8 ], [ 0, %12 ]
  %13 = tail call noundef nonnull align 8 dereferenceable(8) ptr @_ZStlsISt11char_traitsIcEERSt13basic_ostreamIcT_ES5_PKc(ptr noundef nonnull align 8 dereferenceable(8) %1, ptr noundef nonnull @.str.5)
  %14 = add nuw nsw i32 %.03.i.i9, 1
  %exitcond.not.i10 = icmp eq i32 %14, %2
  br i1 %exitcond.not.i10, label %_ZlsRSo23cmScriptGeneratorIndent.exit11, label %.lr.ph.i.i8, !llvm.loop !7

_ZlsRSo23cmScriptGeneratorIndent.exit11:          ; preds = %.lr.ph.i.i8, %12
  %15 = tail call noundef nonnull align 8 dereferenceable(8) ptr @_ZStlsISt11char_traitsIcEERSt13basic_ostreamIcT_ES5_PKc(ptr noundef nonnull align 8 dereferenceable(8) %1, ptr noundef nonnull @.str.3)
  br label %_ZlsRSo23cmScriptGeneratorIndent.exit

_ZlsRSo23cmScriptGeneratorIndent.exit:            ; preds = %.lr.ph.i.i, %9, %_ZlsRSo23cmScriptGeneratorIndent.exit11
  %.sink12 = phi ptr [ %15, %_ZlsRSo23cmScriptGeneratorIndent.exit11 ], [ %1, %9 ], [ %1, %.lr.ph.i.i ]
  %.str.4.sink = phi ptr [ @.str.4, %_ZlsRSo23cmScriptGeneratorIndent.exit11 ], [ @.str.2, %9 ], [ @.str.2, %.lr.ph.i.i ]
  %16 = tail call noundef nonnull align 8 dereferenceable(8) ptr @_ZStlsIcSt11char_traitsIcESaIcEERSt13basic_ostreamIT_T0_ES7_RKNSt7__cxx1112basic_stringIS4_S5_T1_EE(ptr noundef nonnull align 8 dereferenceable(8) %.sink12, ptr noundef nonnull align 8 dereferenceable(32) %3)
  %17 = tail call noundef nonnull align 8 dereferenceable(8) ptr @_ZStlsISt11char_traitsIcEERSt13basic_ostreamIcT_ES5_PKc(ptr noundef nonnull align 8 dereferenceable(8) %16, ptr noundef nonnull %.str.4.sink)
  ret void
}